(dp1
S'output'
p2
S"<type 'exceptions.UnboundLocalError'> local variable 'name' referenced before assignment"
p3
sS'layer'
p4
S'/home/rishith/web2py/applications/IceScheduler/controllers/schedule.py'
p5
sS'code'
p6
S'# -*- coding: utf-8 -*-\n# try something like\ndef index():\n\tgames = games = db(db.games.id > 0).select()\n\treturn locals()\n\ndef game(): \n\tif(request.vars.game):\n\t\tgameId = int(request.vars.game)\n\telse:\n\t\tredirect(URL(\'index\'))\n\tname = db(db.games.id == gameId).select(name)\n\treturn locals()\n\ndef league():\n\tif(request.vars.number):\n\t\tnum = int(request.vars.number)\n\telse:\n\t\tredirect(URL(\'index\'))\n\tif(request.vars.rinks):\n\t\trinks = int(request.vars.rinks)\n\telse:\n\t\trinks = 1\n\tif(request.vars.practice):\n\t\tpractice = True\n\telse:\n\t\tpractice = False\n\trotation = ["Team" + str(i+1) for i in range(num)]\n\n\tif num % 2:\n\t\trotation.append(\'BYE\')\n\t\tnum += 1\n\n\tfixtures = []\n\tfor i in range(0, num-1):\n\t\tfixtures.append(rotation)\n\t\trotation = [rotation[0]] + [rotation[-1]] + rotation[1:-1]\n\tmatches = []\n\tfor f in fixtures:    \n\t\tfor i in range(len(f)/2):\n\t\t\tif "BYE" not in (f[i], f[num-i-1]):\n\t\t\t\tif practice:\n\t\t\t\t\tmatches.append(tuple((f[i], "Practice")))\n\t\t\t\t\tmatches.append(tuple((f[num-i-1], "Practice")))\n\t\t\t\tmatches.append(tuple((f[i], f[num-i-1])))\n\treturn locals()\nresponse._vars=response._caller(game)\n'
p7
sS'snapshot'
p8
(dp9
sS'traceback'
p10
S'Traceback (most recent call last):\n  File "/home/rishith/web2py/gluon/restricted.py", line 227, in restricted\n    exec ccode in environment\n  File "/home/rishith/web2py/applications/IceScheduler/controllers/schedule.py", line 47, in <module>\n  File "/home/rishith/web2py/gluon/globals.py", line 412, in <lambda>\n    self._caller = lambda f: f()\n  File "/home/rishith/web2py/applications/IceScheduler/controllers/schedule.py", line 12, in game\n    name = db(db.games.id == gameId).select(name)\nUnboundLocalError: local variable \'name\' referenced before assignment\n'
p11
s.