(dp1
S'output'
p2
S"<type 'exceptions.UnboundLocalError'> local variable 'gskip' referenced before assignment"
p3
sS'layer'
p4
S'/home/rishith/web2py/applications/IceScheduler/controllers/schedule.py'
p5
sS'code'
p6
S'# -*- coding: utf-8 -*-\n# try something like\nfrom datetime import datetime, timedelta\n\ndef index():\n\tgames = db(db.games.id > 0).select()\n\treturn locals()\n\ndef game(): \n\tif(request.vars.game):\n\t\tgameId = int(request.vars.game)\n\telse:\n\t\tredirect(URL(\'index\'))\n\trow = db.games(gameId)\n\tgame = row.name\n\tpitch = row.pitch\n\treturn locals()\n\ndef league():\n\tif(request.vars.arenas):\n\t\tarenas = int(request.vars.arenas)\n\telse:\n\t\tarenas = 1\n\tif request.vars.number > 1:\n\t\tnum = int(request.vars.number)\n\telse:\n\t\tredirect(URL(\'index\'))\n\tif(request.vars.practice):\n\t\tpractice = True\n\telse:\n\t\tpractice = False\n\tif(request.vars.game):\n\t\tgameId = int(request.vars.game)\n\telse:\n\t\tredirect(URL(\'index\'))\n\tif request.vars.custom:\n\t\tcustom = int(request.vars.custom)\n\t\tit = request.vars.it\n\telse:\n\t\tcustom=0\n\tz=request.vars.copy()\n\thome = z.copy()\n\thome[\'custom\']=0\n\trow = db.games(gameId)\n\tgame = row.name\n\tpitch = row.pitch\n\tif request.vars.time:\n\t\tgtime = int(request.vars.time)\n\telse:\n\t\tgtime = 0\n\tif request.vars.gskip:\n\t\tgtime = int(request.vars.gskip)\n\telse:\n\t\tgskip = 0\n\tif request.vars.glen:\n\t\tglen = str(request.vars.glen)\n\telse:\n\t\tglen = 60\n\trotation = ["Team" + str(i+1) for i in range(num)]\n\n\tif num % 2:\n\t\trotation.append(\'BYE\')\n\t\tnum += 1\n\n\tfixtures = []\n\tfor i in range(0, num-1):\n\t\tfixtures.append(rotation)\n\t\trotation = [rotation[0]] + [rotation[-1]] + rotation[1:-1]\n\tmatches = []\n\tfor f in fixtures:    \n\t\tfor i in range(len(f)/2):\n\t\t\tif "BYE" not in (f[i], f[num-i-1]):\n\t\t\t\tif practice:\n\t\t\t\t\tmatches.append(tuple((f[i], "Practice")))\n\t\t\t\t\tmatches.append(tuple((f[num-i-1], "Practice")))\n\t\t\t\tmatches.append(tuple((f[i], f[num-i-1])))\n\n\t#parsing input\n\tif request.vars.gdata:\n\t\tdata = request.vars.gdata\n\telse:\n\t\tdata = "False"\n\n\tslots = []\n\terror = []\n\tif data != "False":\n\t\tarr = data.split(\'\\r\\n\')\n\t\ti = 0\n\t\tfor row in arr:\n\t\t\tif row == "":\n\t\t\t\tcontinue\n\t\t\ti += 1\n\t\t\tvalues = row.split(\',\')\n\t\t\tif len(values) != 4:\n\t\t\t\terror.append(\'Wrong number of arguments at line \' + str(i))\n\t\t\t\tcontinue\n\t\t\tst = values[2].split(\':\')\n\t\t\tif len(st) !=2:\n\t\t\t\terror.append(\'Wrong format for start time at line \' + str(i))\n\t\t\t\tcontinue\n\t\t\tet = values[3].split(\':\')\n\t\t\tif len(et) !=2:\n\t\t\t\terror.append(\'Wrong format for end time at line \' + str(i))\n\t\t\t\tcontinue\n\n\t\t\t#time divisions\n\t\t\tstart = datetime.now().replace(hour=int(st[0]), minute=int(st[1]))\n\t\t\tend = start + timedelta(minutes = int(glen))\n\t\t\tdend = datetime.now().replace(hour=int(et[0]), minute=int(et[1]))\n\t\t\twhile end <= dend:\n\t\t\t\tslots.append([values[0], values[1], start.strftime("%H:%M") , end.strftime("%H:%M")])\n\t\t\t\tstart = end + timedelta(minutes = int(gskip))\n\t\t\t\tend = start + timedelta(minutes = int(glen))\n\telse:\n\t\tarr = 0\n\n\treturn locals()\nresponse._vars=response._caller(league)\n'
p7
sS'snapshot'
p8
(dp9
sS'traceback'
p10
S'Traceback (most recent call last):\n  File "/home/rishith/web2py/gluon/restricted.py", line 227, in restricted\n    exec ccode in environment\n  File "/home/rishith/web2py/applications/IceScheduler/controllers/schedule.py", line 118, in <module>\n  File "/home/rishith/web2py/gluon/globals.py", line 412, in <lambda>\n    self._caller = lambda f: f()\n  File "/home/rishith/web2py/applications/IceScheduler/controllers/schedule.py", line 112, in league\n    start = end + timedelta(minutes = int(gskip))\nUnboundLocalError: local variable \'gskip\' referenced before assignment\n'
p11
s.